target datalayout = "e-m:e-p270:32:32-p271:32:32-p272:64:64-i64:64-i128:128-f80:128-n8:16:32:64-S128"
target triple = "x86_64-pc-linux-gnu"

%struct.EncoderSession = type { i32, i32, i32, i32, ptr, ptr, ptr, i32, i32, i32, i64, i64, i64, i64, i32, i64, [16 x i8], %struct.SampleInfo, i32, %union.anon.4, ptr, ptr, ptr, double, double }
%struct.SampleInfo = type { i32, i32, i32, i32, i32, i32, i32, i32 }
%union.anon.4 = type { %struct.anon.6 }
%struct.anon.6 = type { ptr, %struct.FLACDecoderData }
%struct.FLACDecoderData = type { i64, ptr, i32, i64, [1024 x ptr], i64, i32 }

; Function Attrs: nounwind sspstrong uwtable
define internal void @flac_decoder_metadata_callback(ptr noundef %0, ptr noundef %1, ptr noundef %2) #0 {
  %4 = alloca ptr, align 8
  %5 = alloca ptr, align 8
  %6 = alloca ptr, align 8
  %7 = alloca ptr, align 8
  %8 = alloca ptr, align 8
  %9 = alloca i32, align 4
  store ptr %0, ptr %4, align 8, !tbaa !48
  store ptr %1, ptr %5, align 8, !tbaa !89
  store ptr %2, ptr %6, align 8, !tbaa !48
  call void @llvm.lifetime.start.p0(i64 8, ptr %7) #14
  %10 = load ptr, ptr %6, align 8, !tbaa !48
  store ptr %10, ptr %7, align 8, !tbaa !48
  call void @llvm.lifetime.start.p0(i64 8, ptr %8) #14
  %11 = load ptr, ptr %7, align 8, !tbaa !48
  %12 = getelementptr inbounds nuw %struct.EncoderSession, ptr %11, i32 0, i32 19
  %13 = getelementptr inbounds nuw %struct.anon.6, ptr %12, i32 0, i32 1
  store ptr %13, ptr %8, align 8, !tbaa !48
  %14 = load ptr, ptr %8, align 8, !tbaa !48
  %15 = getelementptr inbounds nuw %struct.FLACDecoderData, ptr %14, i32 0, i32 6
  %16 = load i32, ptr %15, align 8, !tbaa !175
  %17 = icmp ne i32 %16, 0
  br i1 %17, label %18, label %19

18:                                               ; preds = %3
  store i32 1, ptr %9, align 4
  br label %43

19:                                               ; preds = %3
  %20 = load ptr, ptr %8, align 8, !tbaa !48
  %21 = getelementptr inbounds nuw %struct.FLACDecoderData, ptr %20, i32 0, i32 3
  %22 = load i64, ptr %21, align 8, !tbaa !90
  %23 = icmp eq i64 %22, 1024
  br i1 %23, label %34, label %24

24:                                               ; preds = %19
  %25 = load ptr, ptr %5, align 8, !tbaa !89
  %26 = call ptr @FLAC__metadata_object_clone(ptr noundef %25)
  %27 = load ptr, ptr %8, align 8, !tbaa !48
  %28 = getelementptr inbounds nuw %struct.FLACDecoderData, ptr %27, i32 0, i32 4
  %29 = load ptr, ptr %8, align 8, !tbaa !48
  %30 = getelementptr inbounds nuw %struct.FLACDecoderData, ptr %29, i32 0, i32 3
  %31 = load i64, ptr %30, align 8, !tbaa !90
  %32 = getelementptr inbounds nuw [1024 x ptr], ptr %28, i64 0, i64 %31
  store ptr %26, ptr %32, align 8, !tbaa !89
  %33 = icmp eq ptr null, %26
  br i1 %33, label %34, label %37

34:                                               ; preds = %24, %19
  %35 = load ptr, ptr %8, align 8, !tbaa !48
  %36 = getelementptr inbounds nuw %struct.FLACDecoderData, ptr %35, i32 0, i32 6
  store i32 1, ptr %36, align 8, !tbaa !175
  br label %42

37:                                               ; preds = %24
  %38 = load ptr, ptr %8, align 8, !tbaa !48
  %39 = getelementptr inbounds nuw %struct.FLACDecoderData, ptr %38, i32 0, i32 3
  %40 = load i64, ptr %39, align 8, !tbaa !90
  %41 = add i64 %40, 1
  store i64 %41, ptr %39, align 8, !tbaa !90
  br label %42

42:                                               ; preds = %37, %34
  store i32 0, ptr %9, align 4
  br label %43

43:                                               ; preds = %42, %18
  call void @llvm.lifetime.end.p0(i64 8, ptr %8) #14
  call void @llvm.lifetime.end.p0(i64 8, ptr %7) #14
  %44 = load i32, ptr %9, align 4
  switch i32 %44, label %46 [
    i32 0, label %45
    i32 1, label %45
  ]

45:                                               ; preds = %43, %43
  ret void

46:                                               ; preds = %43
  unreachable
}