; Function Attrs: nounwind sspstrong uwtable
define internal void @flac_decoder_metadata_callback(ptr readnone captures(none) %0, ptr noundef %1, ptr noundef captures(none) %2) #0 {
  %4 = getelementptr inbounds nuw i8, ptr %2, i64 8400
  %5 = load i32, ptr %4, align 8, !tbaa !175
  %.not = icmp eq i32 %5, 0
  br i1 %.not, label %6, label %19

6:                                                ; preds = %3
  %7 = getelementptr inbounds nuw i8, ptr %2, i64 192
  %8 = load i64, ptr %7, align 8, !tbaa !111
  %9 = icmp eq i64 %8, 1024
  br i1 %9, label %16, label %10

10:                                               ; preds = %6
  %11 = tail call ptr @FLAC__metadata_object_clone(ptr noundef %1) #20
  %12 = getelementptr inbounds nuw i8, ptr %2, i64 200
  %13 = load i64, ptr %7, align 8, !tbaa !111
  %14 = getelementptr inbounds nuw [1024 x ptr], ptr %12, i64 0, i64 %13
  store ptr %11, ptr %14, align 8, !tbaa !91
  %15 = icmp eq ptr %11, null
  br i1 %15, label %16, label %17

16:                                               ; preds = %10, %6
  store i32 1, ptr %4, align 8, !tbaa !175
  br label %19

17:                                               ; preds = %10
  %18 = add i64 %13, 1
  store i64 %18, ptr %7, align 8, !tbaa !111
  br label %19

19:                                               ; preds = %16, %17, %3
  ret void
}